target datalayout = "e-m:e-p270:32:32-p271:32:32-p272:64:64-i64:64-i128:128-f80:128-n8:16:32:64-S128"
target triple = "x86_64-pc-linux-gnu"

; Function Attrs: nounwind uwtable
define i32 @nghttp2_submit_rst_stream(ptr noundef %0, i8 noundef zeroext %1, i32 noundef %2, i32 noundef %3) #0 {
  %5 = alloca i32, align 4
  %6 = alloca ptr, align 8
  %7 = alloca i8, align 1
  %8 = alloca i32, align 4
  %9 = alloca i32, align 4
  store ptr %0, ptr %6, align 8, !tbaa !3
  store i8 %1, ptr %7, align 1, !tbaa !13
  store i32 %2, ptr %8, align 4, !tbaa !8
  store i32 %3, ptr %9, align 4, !tbaa !8
  %10 = load i32, ptr %8, align 4, !tbaa !8
  %11 = icmp eq i32 %10, 0
  br i1 %11, label %12, label %13

12:                                               ; preds = %4
  store i32 -501, ptr %5, align 4
  br label %18

13:                                               ; preds = %4
  %14 = load ptr, ptr %6, align 8, !tbaa !3
  %15 = load i32, ptr %8, align 4, !tbaa !8
  %16 = load i32, ptr %9, align 4, !tbaa !8
  %17 = call i32 @nghttp2_session_add_rst_stream(ptr noundef %14, i32 noundef %15, i32 noundef %16)
  store i32 %17, ptr %5, align 4
  br label %18

18:                                               ; preds = %13, %12
  %19 = load i32, ptr %5, align 4
  ret i32 %19
}