; Function Attrs: nounwind uwtable
define i32 @nghttp2_submit_rst_stream(ptr noundef %0, i8 noundef zeroext %1, i32 noundef %2, i32 noundef %3) local_unnamed_addr #0 {
  %5 = icmp eq i32 %2, 0
  br i1 %5, label %8, label %6

6:                                                ; preds = %4
  %7 = tail call i32 @nghttp2_session_add_rst_stream(ptr noundef %0, i32 noundef %2, i32 noundef %3) #8
  br label %8

8:                                                ; preds = %4, %6
  %.0 = phi i32 [ %7, %6 ], [ -501, %4 ]
  ret i32 %.0
}